target datalayout = "e-m:e-p270:32:32-p271:32:32-p272:64:64-i64:64-i128:128-f80:128-n8:16:32:64-S128"
target triple = "x86_64-pc-linux-gnu"

%struct.SDL_Keyboard = type { ptr, i16, [512 x i8], [512 x i8], ptr, i32, i8, i64, i32 }

@SDL_keyboard = internal global %struct.SDL_Keyboard zeroinitializer, align 8

; Function Attrs: nounwind uwtable
define hidden void @SDL_ToggleModState(i16 noundef zeroext %0, i1 noundef zeroext %1) #0 {
  %3 = alloca i16, align 2
  %4 = alloca i8, align 1
  %5 = alloca ptr, align 8
  store i16 %0, ptr %3, align 2
  %6 = zext i1 %1 to i8
  store i8 %6, ptr %4, align 1
  call void @llvm.lifetime.start.p0(i64 8, ptr %5) #6
  store ptr @SDL_keyboard, ptr %5, align 8
  %7 = load i8, ptr %4, align 1, !range !3, !noundef !4
  %8 = trunc i8 %7 to i1
  br i1 %8, label %9, label %18

9:                                                ; preds = %2
  %10 = load i16, ptr %3, align 2
  %11 = zext i16 %10 to i32
  %12 = load ptr, ptr %5, align 8
  %13 = getelementptr inbounds nuw %struct.SDL_Keyboard, ptr %12, i32 0, i32 1
  %14 = load i16, ptr %13, align 8
  %15 = zext i16 %14 to i32
  %16 = or i32 %15, %11
  %17 = trunc i32 %16 to i16
  store i16 %17, ptr %13, align 8
  br label %28

18:                                               ; preds = %2
  %19 = load i16, ptr %3, align 2
  %20 = zext i16 %19 to i32
  %21 = xor i32 %20, -1
  %22 = load ptr, ptr %5, align 8
  %23 = getelementptr inbounds nuw %struct.SDL_Keyboard, ptr %22, i32 0, i32 1
  %24 = load i16, ptr %23, align 8
  %25 = zext i16 %24 to i32
  %26 = and i32 %25, %21
  %27 = trunc i32 %26 to i16
  store i16 %27, ptr %23, align 8
  br label %28

28:                                               ; preds = %18, %9
  call void @llvm.lifetime.end.p0(i64 8, ptr %5) #6
  ret void
}