; Function Attrs: mustprogress nofree norecurse nosync nounwind willreturn memory(readwrite, argmem: none, inaccessiblemem: none) uwtable
define hidden void @SDL_ToggleModState(i16 noundef zeroext %0, i1 noundef zeroext %1) local_unnamed_addr #12 {
  br i1 %1, label %3, label %6

3:                                                ; preds = %2
  %4 = load i16, ptr getelementptr inbounds nuw (i8, ptr @SDL_keyboard, i64 8), align 8
  %5 = or i16 %4, %0
  br label %10

6:                                                ; preds = %2
  %7 = xor i16 %0, -1
  %8 = load i16, ptr getelementptr inbounds nuw (i8, ptr @SDL_keyboard, i64 8), align 8
  %9 = and i16 %8, %7
  br label %10

10:                                               ; preds = %6, %3
  %storemerge = phi i16 [ %9, %6 ], [ %5, %3 ]
  store i16 %storemerge, ptr getelementptr inbounds nuw (i8, ptr @SDL_keyboard, i64 8), align 8
  ret void
}